target datalayout = "e-m:e-p270:32:32-p271:32:32-p272:64:64-i64:64-i128:128-f80:128-n8:16:32:64-S128"
target triple = "x86_64-pc-linux-gnu"

@.str.62 = private unnamed_addr constant [8 x i8] c"unknown\00", align 1
@.str.465 = private unnamed_addr constant [17 x i8] c"End of job queue\00", align 1
@.str.471 = private unnamed_addr constant [21 x i8] c"Hit bf_max_job_start\00", align 1
@.str.472 = private unnamed_addr constant [20 x i8] c"Hit bf_max_job_test\00", align 1
@.str.473 = private unnamed_addr constant [21 x i8] c"System state changed\00", align 1
@.str.474 = private unnamed_addr constant [42 x i8] c"Hit table size limit (bf_node_space_size)\00", align 1
@.str.475 = private unnamed_addr constant [22 x i8] c"Timeout (bf_max_time)\00", align 1

; Function Attrs: nounwind uwtable
define dso_local ptr @bf_exit2string(i16 noundef zeroext %0) #0 {
  %2 = alloca ptr, align 8
  %3 = alloca i16, align 2
  store i16 %0, ptr %3, align 2
  %4 = load i16, ptr %3, align 2
  %5 = zext i16 %4 to i32
  switch i32 %5, label %12 [
    i32 0, label %6
    i32 1, label %7
    i32 2, label %8
    i32 3, label %9
    i32 4, label %10
    i32 5, label %11
  ]

6:                                                ; preds = %1
  store ptr @.str.465, ptr %2, align 8
  br label %13

7:                                                ; preds = %1
  store ptr @.str.471, ptr %2, align 8
  br label %13

8:                                                ; preds = %1
  store ptr @.str.472, ptr %2, align 8
  br label %13

9:                                                ; preds = %1
  store ptr @.str.473, ptr %2, align 8
  br label %13

10:                                               ; preds = %1
  store ptr @.str.474, ptr %2, align 8
  br label %13

11:                                               ; preds = %1
  store ptr @.str.475, ptr %2, align 8
  br label %13

12:                                               ; preds = %1
  store ptr @.str.62, ptr %2, align 8
  br label %13

13:                                               ; preds = %12, %11, %10, %9, %8, %7, %6
  %14 = load ptr, ptr %2, align 8
  ret ptr %14
}